; Function Attrs: mustprogress uwtable
define void @_ZN32pxrInternal_v0_24__pxrReserved__14_GetSourceArcsILNS_10PcpArcTypeE4EEEDaRKNS_10PcpNodeRefEPSt6vectorINS_10PcpArcInfoESaIS6_EE(ptr dead_on_unwind noalias writable sret(%"class.std::vector.168") align 8 %0, ptr noundef nonnull align 8 dereferenceable(16) %1, ptr noundef %2) local_unnamed_addr #3 personality ptr @__gxx_personality_v0 {
  tail call void @llvm.memset.p0.i64(ptr noundef nonnull align 8 dereferenceable(24) %0, i8 0, i64 24, i1 false)
  %4 = invoke noundef nonnull align 8 dereferenceable(8) ptr @_ZNK32pxrInternal_v0_24__pxrReserved__10PcpNodeRef13GetLayerStackEv(ptr noundef nonnull align 8 dereferenceable(16) %1)
          to label %.noexc unwind label %6

.noexc:                                           ; preds = %3
  %5 = invoke noundef nonnull align 4 dereferenceable(8) ptr @_ZNK32pxrInternal_v0_24__pxrReserved__10PcpNodeRef7GetPathEv(ptr noundef nonnull align 8 dereferenceable(16) %1)
          to label %.noexc4 unwind label %6

.noexc4:                                          ; preds = %.noexc
  invoke void @_ZN32pxrInternal_v0_24__pxrReserved__24PcpComposeSiteReferencesERKNS_8TfRefPtrINS_13PcpLayerStackEEERKNS_7SdfPathEPSt6vectorINS_12SdfReferenceESaIS9_EEPS8_INS_10PcpArcInfoESaISD_EEPSt13unordered_setINSt7__cxx1112basic_stringIcSt11char_traitsIcESaIcEEESt4hashISN_ESt8equal_toISN_ESaISN_EEPS8_ISt10shared_ptrINS_12PcpErrorBaseEESaISX_EE(ptr noundef nonnull align 8 dereferenceable(8) %4, ptr noundef nonnull align 4 dereferenceable(8) %5, ptr noundef nonnull %0, ptr noundef %2, ptr noundef null, ptr noundef null)
          to label %_ZN32pxrInternal_v0_24__pxrReserved__24PcpComposeSiteReferencesERKNS_10PcpNodeRefEPSt6vectorINS_12SdfReferenceESaIS4_EEPS3_INS_10PcpArcInfoESaIS8_EE.exit unwind label %6

6:                                                ; preds = %.noexc4, %.noexc, %3
  %7 = landingpad { ptr, i32 }
          cleanup
  tail call void @_ZNSt6vectorIN32pxrInternal_v0_24__pxrReserved__12SdfReferenceESaIS1_EED2Ev(ptr noundef nonnull align 8 dereferenceable(24) %0) #22
  resume { ptr, i32 } %7

_ZN32pxrInternal_v0_24__pxrReserved__24PcpComposeSiteReferencesERKNS_10PcpNodeRefEPSt6vectorINS_12SdfReferenceESaIS4_EEPS3_INS_10PcpArcInfoESaIS8_EE.exit: ; preds = %.noexc4
  ret void
}